; Function Attrs: nounwind uwtable
define ptr @l_Lean_Elab_Tactic_RCases_RCasesPatt_asAlts(ptr noundef %0) local_unnamed_addr #1 {
  br label %lean_dec.exit16

lean_dec.exit16:                                  ; preds = %lean_dec.exit16.backedge, %1
  %.015 = phi ptr [ %0, %1 ], [ %12, %lean_dec.exit16.backedge ]
  %2 = ptrtoint ptr %.015 to i64
  %3 = and i64 %2, 1
  %.not.i20 = icmp eq i64 %3, 0
  br i1 %.not.i20, label %7, label %4

4:                                                ; preds = %lean_dec.exit16
  %5 = lshr i64 %2, 1
  %6 = trunc i64 %5 to i32
  br label %lean_obj_tag.exit

7:                                                ; preds = %lean_dec.exit16
  %8 = getelementptr i8, ptr %.015, i64 4
  %.val.i = load i32, ptr %8, align 4
  %9 = lshr i32 %.val.i, 24
  br label %lean_obj_tag.exit

lean_obj_tag.exit:                                ; preds = %4, %7
  %.0.i = phi i32 [ %6, %4 ], [ %9, %7 ]
  switch i32 %.0.i, label %46 [
    i32 0, label %10
    i32 6, label %28
  ]

10:                                               ; preds = %lean_obj_tag.exit
  %11 = getelementptr inbounds nuw i8, ptr %.015, i64 16
  %12 = load ptr, ptr %11, align 8, !tbaa !4
  %13 = ptrtoint ptr %12 to i64
  %14 = and i64 %13, 1
  %.not27 = icmp eq i64 %14, 0
  br i1 %.not27, label %15, label %lean_inc.exit17

15:                                               ; preds = %10
  %.val.i21 = load i32, ptr %12, align 4, !tbaa !8
  %16 = icmp sgt i32 %.val.i21, 0
  br i1 %16, label %17, label %19, !prof !11

17:                                               ; preds = %15
  %18 = add nuw i32 %.val.i21, 1
  store i32 %18, ptr %12, align 4, !tbaa !8
  br label %lean_inc.exit17

19:                                               ; preds = %15
  %.not.i22 = icmp eq i32 %.val.i21, 0
  br i1 %.not.i22, label %lean_inc.exit17, label %20

20:                                               ; preds = %19
  tail call void @lean_inc_ref_cold(ptr noundef nonnull %12) #5
  br label %lean_inc.exit17

lean_inc.exit17:                                  ; preds = %20, %19, %17, %10
  br i1 %.not.i20, label %21, label %lean_dec.exit16.backedge

21:                                               ; preds = %lean_inc.exit17
  %22 = load i32, ptr %.015, align 4, !tbaa !8
  %23 = icmp sgt i32 %22, 1
  br i1 %23, label %24, label %26, !prof !11

24:                                               ; preds = %21
  %25 = add nsw i32 %22, -1
  store i32 %25, ptr %.015, align 4, !tbaa !8
  br label %lean_dec.exit16.backedge

26:                                               ; preds = %21
  %.not.i = icmp eq i32 %22, 0
  br i1 %.not.i, label %lean_dec.exit16.backedge, label %27

27:                                               ; preds = %26
  tail call void @lean_dec_ref_cold(ptr noundef nonnull %.015) #5
  br label %lean_dec.exit16.backedge

lean_dec.exit16.backedge:                         ; preds = %27, %26, %24, %lean_inc.exit17
  br label %lean_dec.exit16

28:                                               ; preds = %lean_obj_tag.exit
  %29 = getelementptr inbounds nuw i8, ptr %.015, i64 16
  %30 = load ptr, ptr %29, align 8, !tbaa !4
  %31 = ptrtoint ptr %30 to i64
  %32 = and i64 %31, 1
  %.not = icmp eq i64 %32, 0
  br i1 %.not, label %33, label %lean_inc.exit

33:                                               ; preds = %28
  %.val.i23 = load i32, ptr %30, align 4, !tbaa !8
  %34 = icmp sgt i32 %.val.i23, 0
  br i1 %34, label %35, label %37, !prof !11

35:                                               ; preds = %33
  %36 = add nuw i32 %.val.i23, 1
  store i32 %36, ptr %30, align 4, !tbaa !8
  br label %lean_inc.exit

37:                                               ; preds = %33
  %.not.i24 = icmp eq i32 %.val.i23, 0
  br i1 %.not.i24, label %lean_inc.exit, label %38

38:                                               ; preds = %37
  tail call void @lean_inc_ref_cold(ptr noundef nonnull %30) #5
  br label %lean_inc.exit

lean_inc.exit:                                    ; preds = %38, %37, %35, %28
  br i1 %.not.i20, label %39, label %lean_dec.exit

39:                                               ; preds = %lean_inc.exit
  %40 = load i32, ptr %.015, align 4, !tbaa !8
  %41 = icmp sgt i32 %40, 1
  br i1 %41, label %42, label %44, !prof !11

42:                                               ; preds = %39
  %43 = add nsw i32 %40, -1
  store i32 %43, ptr %.015, align 4, !tbaa !8
  br label %lean_dec.exit

44:                                               ; preds = %39
  %.not.i18 = icmp eq i32 %40, 0
  br i1 %.not.i18, label %lean_dec.exit, label %45

45:                                               ; preds = %44
  tail call void @lean_dec_ref_cold(ptr noundef nonnull %.015) #5
  br label %lean_dec.exit

46:                                               ; preds = %lean_obj_tag.exit
  tail call void @lean_inc_heartbeat() #5
  %47 = tail call noalias ptr @mi_malloc_small(i64 noundef 24) #5
  %48 = icmp eq ptr %47, null
  br i1 %48, label %49, label %lean_alloc_ctor.exit

49:                                               ; preds = %46
  tail call void @lean_internal_panic_out_of_memory() #6
  unreachable

lean_alloc_ctor.exit:                             ; preds = %46
  %50 = getelementptr inbounds nuw i8, ptr %47, i64 4
  store i32 1, ptr %47, align 4, !tbaa !8
  store i32 16908312, ptr %50, align 4
  %51 = getelementptr inbounds nuw i8, ptr %47, i64 8
  store ptr %.015, ptr %51, align 8, !tbaa !4
  %52 = getelementptr inbounds nuw i8, ptr %47, i64 16
  store ptr inttoptr (i64 1 to ptr), ptr %52, align 8, !tbaa !4
  br label %lean_dec.exit

lean_dec.exit:                                    ; preds = %lean_inc.exit, %42, %44, %45, %lean_alloc_ctor.exit
  %.0 = phi ptr [ %47, %lean_alloc_ctor.exit ], [ %30, %45 ], [ %30, %44 ], [ %30, %42 ], [ %30, %lean_inc.exit ]
  ret ptr %.0
}